target datalayout = "e-m:e-p270:32:32-p271:32:32-p272:64:64-i64:64-i128:128-f80:128-n8:16:32:64-S128"
target triple = "x86_64-pc-linux-gnu"

%class.nmethod = type <{ %class.CodeBlob.base, [2 x i8], i64, i64, ptr, %union.anon, ptr, ptr, ptr, ptr, ptr, ptr, ptr, i16, i16, i32, i32, i32, i32, i32, i32, i32, i16, i16, i16, i16, i16, i16, i32, i32, i32, i32, i32, i8, i8, i8, i8, i8, i8, [2 x i8] }>
%class.CodeBlob.base = type <{ ptr, ptr, ptr, i32, i32, i32, i32, i32, i32, i16, i16, i8, i8 }>
%union.anon = type { ptr }
%class.CodeBlob = type <{ ptr, ptr, ptr, i32, i32, i32, i32, i32, i32, i16, i16, i8, i8, [2 x i8] }>
%class.CodeOffsets = type { [8 x i32] }
%class.CodeBuffer = type { ptr, %class.CodeSection, %class.CodeSection, %class.CodeSection, ptr, ptr, ptr, i32, ptr, %class.OopRecorder, ptr, ptr, ptr, ptr, ptr, i8, i32 }
%class.CodeSection = type { ptr, ptr, ptr, ptr, ptr, ptr, ptr, ptr, i8, i8, i32, i8, ptr }
%class.OopRecorder = type { %class.ValueRecorder, %class.ValueRecorder.8, ptr }
%class.ValueRecorder = type <{ ptr, ptr, ptr, ptr, i8, [7 x i8] }>
%class.ValueRecorder.8 = type <{ ptr, ptr, ptr, ptr, i8, [7 x i8] }>

; Function Attrs: mustprogress nounwind uwtable
define linkonce_odr hidden noundef i32 @_ZN11CodeOffsets5valueENS_7EntriesE(ptr noundef nonnull align 4 dereferenceable(32) %0, i32 noundef %1) #1 comdat align 2 {
  %3 = alloca ptr, align 8
  %4 = alloca i32, align 4
  store ptr %0, ptr %3, align 8
  store i32 %1, ptr %4, align 4
  %5 = load ptr, ptr %3, align 8
  %6 = getelementptr inbounds %class.CodeOffsets, ptr %5, i32 0, i32 0
  %7 = load i32, ptr %4, align 4
  %8 = zext i32 %7 to i64
  %9 = getelementptr inbounds [8 x i32], ptr %6, i64 0, i64 %8
  %10 = load i32, ptr %9, align 4
  ret i32 %10
}

; Function Attrs: mustprogress nounwind uwtable
define linkonce_odr hidden noundef ptr @_ZN10CodeBuffer5stubsEv(ptr noundef nonnull align 8 dereferenceable(448) %0) #1 comdat align 2 {
  %2 = alloca ptr, align 8
  store ptr %0, ptr %2, align 8
  %3 = load ptr, ptr %2, align 8
  %4 = getelementptr inbounds %class.CodeBuffer, ptr %3, i32 0, i32 3
  ret ptr %4
}

; Function Attrs: mustprogress nounwind uwtable
define linkonce_odr hidden noundef i32 @_ZNK8CodeBlob14content_offsetEv(ptr noundef nonnull align 8 dereferenceable(54) %0) #1 comdat align 2 {
  %2 = alloca ptr, align 8
  store ptr %0, ptr %2, align 8
  %3 = load ptr, ptr %2, align 8
  %4 = getelementptr inbounds %class.CodeBlob, ptr %3, i32 0, i32 5
  %5 = load i32, ptr %4, align 8
  ret i32 %5
}

; Function Attrs: mustprogress nounwind uwtable
define linkonce_odr hidden noundef ptr @_ZN10CodeBuffer6constsEv(ptr noundef nonnull align 8 dereferenceable(448) %0) #1 comdat align 2 {
  %2 = alloca ptr, align 8
  store ptr %0, ptr %2, align 8
  %3 = load ptr, ptr %2, align 8
  %4 = getelementptr inbounds %class.CodeBuffer, ptr %3, i32 0, i32 1
  ret ptr %4
}

; Function Attrs: mustprogress nounwind uwtable
define hidden void @_ZN7nmethod13init_defaultsEP10CodeBufferP11CodeOffsets(ptr noundef nonnull align 8 dereferenceable(214) %0, ptr noundef %1, ptr noundef %2) #1 align 2 {
  %4 = alloca ptr, align 8
  %5 = alloca ptr, align 8
  %6 = alloca ptr, align 8
  %7 = alloca i32, align 4
  store ptr %0, ptr %4, align 8
  store ptr %1, ptr %5, align 8
  store ptr %2, ptr %6, align 8
  %8 = load ptr, ptr %4, align 8
  %9 = getelementptr inbounds %class.nmethod, ptr %8, i32 0, i32 8
  store volatile ptr null, ptr %9, align 8
  %10 = getelementptr inbounds %class.nmethod, ptr %8, i32 0, i32 9
  store ptr null, ptr %10, align 8
  %11 = getelementptr inbounds %class.nmethod, ptr %8, i32 0, i32 10
  store volatile ptr null, ptr %11, align 8
  %12 = getelementptr inbounds %class.nmethod, ptr %8, i32 0, i32 11
  store ptr null, ptr %12, align 8
  %13 = getelementptr inbounds %class.nmethod, ptr %8, i32 0, i32 35
  store volatile i8 0, ptr %13, align 2
  %14 = getelementptr inbounds %class.nmethod, ptr %8, i32 0, i32 36
  store volatile i8 -1, ptr %14, align 1
  %15 = getelementptr inbounds %class.nmethod, ptr %8, i32 0, i32 37
  %16 = load i8, ptr %15, align 4
  %17 = and i8 %16, -2
  %18 = or i8 %17, 0
  store i8 %18, ptr %15, align 4
  %19 = getelementptr inbounds %class.nmethod, ptr %8, i32 0, i32 37
  %20 = load i8, ptr %19, align 4
  %21 = and i8 %20, -3
  %22 = or i8 %21, 0
  store i8 %22, ptr %19, align 4
  %23 = getelementptr inbounds %class.nmethod, ptr %8, i32 0, i32 37
  %24 = load i8, ptr %23, align 4
  %25 = and i8 %24, -5
  %26 = or i8 %25, 0
  store i8 %26, ptr %23, align 4
  %27 = getelementptr inbounds %class.nmethod, ptr %8, i32 0, i32 37
  %28 = load i8, ptr %27, align 4
  %29 = and i8 %28, -9
  %30 = or i8 %29, 0
  store i8 %30, ptr %27, align 4
  %31 = getelementptr inbounds %class.nmethod, ptr %8, i32 0, i32 37
  %32 = load i8, ptr %31, align 4
  %33 = and i8 %32, -17
  %34 = or i8 %33, 0
  store i8 %34, ptr %31, align 4
  %35 = getelementptr inbounds %class.nmethod, ptr %8, i32 0, i32 37
  %36 = load i8, ptr %35, align 4
  %37 = and i8 %36, -33
  %38 = or i8 %37, 0
  store i8 %38, ptr %35, align 4
  %39 = getelementptr inbounds %class.nmethod, ptr %8, i32 0, i32 37
  %40 = load i8, ptr %39, align 4
  %41 = and i8 %40, -65
  %42 = or i8 %41, 0
  store i8 %42, ptr %39, align 4
  %43 = getelementptr inbounds %class.nmethod, ptr %8, i32 0, i32 38
  store volatile i8 0, ptr %43, align 1
  %44 = load ptr, ptr %5, align 8
  %45 = load ptr, ptr %5, align 8
  %46 = call noundef ptr @_ZN10CodeBuffer6constsEv(ptr noundef nonnull align 8 dereferenceable(448) %45)
  %47 = call noundef i32 @_ZNK10CodeBuffer15total_offset_ofEPK11CodeSection(ptr noundef nonnull align 8 dereferenceable(448) %44, ptr noundef %46)
  store i32 %47, ptr %7, align 4
  %48 = call noundef i32 @_ZNK8CodeBlob14content_offsetEv(ptr noundef nonnull align 8 dereferenceable(54) %8)
  %49 = load ptr, ptr %5, align 8
  %50 = load ptr, ptr %5, align 8
  %51 = call noundef ptr @_ZN10CodeBuffer5stubsEv(ptr noundef nonnull align 8 dereferenceable(448) %50)
  %52 = call noundef i32 @_ZNK10CodeBuffer15total_offset_ofEPK11CodeSection(ptr noundef nonnull align 8 dereferenceable(448) %49, ptr noundef %51)
  %53 = add nsw i32 %48, %52
  %54 = getelementptr inbounds %class.nmethod, ptr %8, i32 0, i32 18
  store i32 %53, ptr %54, align 8
  %55 = load ptr, ptr %6, align 8
  %56 = call noundef i32 @_ZN11CodeOffsets5valueENS_7EntriesE(ptr noundef nonnull align 4 dereferenceable(32) %55, i32 noundef 0)
  %57 = trunc i32 %56 to i16
  %58 = getelementptr inbounds %class.nmethod, ptr %8, i32 0, i32 13
  store i16 %57, ptr %58, align 8
  %59 = load ptr, ptr %6, align 8
  %60 = call noundef i32 @_ZN11CodeOffsets5valueENS_7EntriesE(ptr noundef nonnull align 4 dereferenceable(32) %59, i32 noundef 1)
  %61 = trunc i32 %60 to i16
  %62 = getelementptr inbounds %class.nmethod, ptr %8, i32 0, i32 14
  store i16 %61, ptr %62, align 2
  %63 = load ptr, ptr %5, align 8
  %64 = call noundef i32 @_ZNK10CodeBuffer31total_skipped_instructions_sizeEv(ptr noundef nonnull align 8 dereferenceable(448) %63)
  %65 = getelementptr inbounds %class.nmethod, ptr %8, i32 0, i32 17
  store i32 %64, ptr %65, align 4
  ret void
}