; Function Attrs: mustprogress nounwind uwtable
define hidden void @_ZN7nmethod13init_defaultsEP10CodeBufferP11CodeOffsets(ptr noundef nonnull align 8 dereferenceable(214) %0, ptr noundef %1, ptr nocapture noundef readonly %2) local_unnamed_addr #0 align 2 {
  %4 = getelementptr inbounds i8, ptr %0, i64 104
  store volatile ptr null, ptr %4, align 8
  %5 = getelementptr inbounds i8, ptr %0, i64 112
  store ptr null, ptr %5, align 8
  %6 = getelementptr inbounds i8, ptr %0, i64 120
  store volatile ptr null, ptr %6, align 8
  %7 = getelementptr inbounds i8, ptr %0, i64 128
  store ptr null, ptr %7, align 8
  %8 = getelementptr inbounds i8, ptr %0, i64 210
  store volatile i8 0, ptr %8, align 2
  %9 = getelementptr inbounds i8, ptr %0, i64 211
  store volatile i8 -1, ptr %9, align 1
  %10 = getelementptr inbounds i8, ptr %0, i64 212
  %11 = load i8, ptr %10, align 4
  %12 = and i8 %11, -128
  store i8 %12, ptr %10, align 4
  %13 = getelementptr inbounds i8, ptr %0, i64 213
  store volatile i8 0, ptr %13, align 1
  %14 = getelementptr inbounds i8, ptr %1, i64 8
  %15 = tail call noundef i32 @_ZNK10CodeBuffer15total_offset_ofEPK11CodeSection(ptr noundef nonnull align 8 dereferenceable(448) %1, ptr noundef nonnull %14) #23
  %16 = getelementptr inbounds i8, ptr %0, i64 32
  %17 = load i32, ptr %16, align 8
  %18 = getelementptr inbounds i8, ptr %1, i64 184
  %19 = tail call noundef i32 @_ZNK10CodeBuffer15total_offset_ofEPK11CodeSection(ptr noundef nonnull align 8 dereferenceable(448) %1, ptr noundef nonnull %18) #23
  %20 = add nsw i32 %19, %17
  %21 = getelementptr inbounds i8, ptr %0, i64 160
  store i32 %20, ptr %21, align 8
  %22 = load i32, ptr %2, align 4
  %23 = trunc i32 %22 to i16
  %24 = getelementptr inbounds i8, ptr %0, i64 144
  store i16 %23, ptr %24, align 8
  %25 = getelementptr inbounds i8, ptr %2, i64 4
  %26 = load i32, ptr %25, align 4
  %27 = trunc i32 %26 to i16
  %28 = getelementptr inbounds i8, ptr %0, i64 146
  store i16 %27, ptr %28, align 2
  %29 = tail call noundef i32 @_ZNK10CodeBuffer31total_skipped_instructions_sizeEv(ptr noundef nonnull align 8 dereferenceable(448) %1) #23
  %30 = getelementptr inbounds i8, ptr %0, i64 156
  store i32 %29, ptr %30, align 4
  ret void
}